target datalayout = "e-m:e-p270:32:32-p271:32:32-p272:64:64-i64:64-i128:128-f80:128-n8:16:32:64-S128"
target triple = "x86_64-pc-linux-gnu"

%"struct.cv::ppf_match_3d::HSHTBL_i" = type { i64, ptr, ptr }
%"struct.cv::ppf_match_3d::hashnode_i" = type { i32, ptr, ptr }

; Function Attrs: mustprogress nounwind uwtable
define hidden void @_ZN2cv12ppf_match_3d16hashtableDestroyEPNS0_8HSHTBL_iE(ptr noundef %0) #4 {
  %2 = alloca ptr, align 8
  %3 = alloca i64, align 8
  %4 = alloca ptr, align 8
  %5 = alloca ptr, align 8
  store ptr %0, ptr %2, align 8, !tbaa !11
  call void @llvm.lifetime.start.p0(i64 8, ptr %3) #3
  call void @llvm.lifetime.start.p0(i64 8, ptr %4) #3
  call void @llvm.lifetime.start.p0(i64 8, ptr %5) #3
  store i64 0, ptr %3, align 8, !tbaa !7
  br label %6

6:                                                ; preds = %29, %1
  %7 = load i64, ptr %3, align 8, !tbaa !7
  %8 = load ptr, ptr %2, align 8, !tbaa !11
  %9 = getelementptr inbounds nuw %"struct.cv::ppf_match_3d::HSHTBL_i", ptr %8, i32 0, i32 0
  %10 = load i64, ptr %9, align 8, !tbaa !17
  %11 = icmp ult i64 %7, %10
  br i1 %11, label %12, label %32

12:                                               ; preds = %6
  %13 = load ptr, ptr %2, align 8, !tbaa !11
  %14 = getelementptr inbounds nuw %"struct.cv::ppf_match_3d::HSHTBL_i", ptr %13, i32 0, i32 1
  %15 = load ptr, ptr %14, align 8, !tbaa !13
  %16 = load i64, ptr %3, align 8, !tbaa !7
  %17 = getelementptr inbounds nuw ptr, ptr %15, i64 %16
  %18 = load ptr, ptr %17, align 8, !tbaa !19
  store ptr %18, ptr %4, align 8, !tbaa !19
  br label %19

19:                                               ; preds = %22, %12
  %20 = load ptr, ptr %4, align 8, !tbaa !19
  %21 = icmp ne ptr %20, null
  br i1 %21, label %22, label %28

22:                                               ; preds = %19
  %23 = load ptr, ptr %4, align 8, !tbaa !19
  store ptr %23, ptr %5, align 8, !tbaa !19
  %24 = load ptr, ptr %4, align 8, !tbaa !19
  %25 = getelementptr inbounds nuw %"struct.cv::ppf_match_3d::hashnode_i", ptr %24, i32 0, i32 2
  %26 = load ptr, ptr %25, align 8, !tbaa !21
  store ptr %26, ptr %4, align 8, !tbaa !19
  %27 = load ptr, ptr %5, align 8, !tbaa !19
  call void @free(ptr noundef %27) #3
  br label %19, !llvm.loop !23

28:                                               ; preds = %19
  br label %29

29:                                               ; preds = %28
  %30 = load i64, ptr %3, align 8, !tbaa !7
  %31 = add i64 %30, 1
  store i64 %31, ptr %3, align 8, !tbaa !7
  br label %6, !llvm.loop !25

32:                                               ; preds = %6
  %33 = load ptr, ptr %2, align 8, !tbaa !11
  %34 = getelementptr inbounds nuw %"struct.cv::ppf_match_3d::HSHTBL_i", ptr %33, i32 0, i32 1
  %35 = load ptr, ptr %34, align 8, !tbaa !13
  call void @free(ptr noundef %35) #3
  %36 = load ptr, ptr %2, align 8, !tbaa !11
  call void @free(ptr noundef %36) #3
  call void @llvm.lifetime.end.p0(i64 8, ptr %5) #3
  call void @llvm.lifetime.end.p0(i64 8, ptr %4) #3
  call void @llvm.lifetime.end.p0(i64 8, ptr %3) #3
  ret void
}