; Function Attrs: mustprogress nounwind uwtable
define hidden void @_ZN2cv12ppf_match_3d16hashtableDestroyEPNS0_8HSHTBL_iE(ptr noundef captures(none) %0) local_unnamed_addr #9 {
  %2 = load i64, ptr %0, align 8, !tbaa !11
  %.not17 = icmp eq i64 %2, 0
  br i1 %.not17, label %._crit_edge16, label %.lr.ph15

.lr.ph15:                                         ; preds = %1
  %3 = getelementptr inbounds nuw i8, ptr %0, i64 8
  br label %4

4:                                                ; preds = %.lr.ph15, %._crit_edge
  %5 = phi i64 [ %2, %.lr.ph15 ], [ %11, %._crit_edge ]
  %.013 = phi i64 [ 0, %.lr.ph15 ], [ %12, %._crit_edge ]
  %6 = load ptr, ptr %3, align 8, !tbaa !3
  %7 = getelementptr inbounds nuw ptr, ptr %6, i64 %.013
  %8 = load ptr, ptr %7, align 8, !tbaa !13
  %.not11 = icmp eq ptr %8, null
  br i1 %.not11, label %._crit_edge, label %.lr.ph

.lr.ph:                                           ; preds = %4, %.lr.ph
  %.01012 = phi ptr [ %10, %.lr.ph ], [ %8, %4 ]
  %9 = getelementptr inbounds nuw i8, ptr %.01012, i64 16
  %10 = load ptr, ptr %9, align 8, !tbaa !15
  tail call void @free(ptr noundef nonnull %.01012) #19
  %.not = icmp eq ptr %10, null
  br i1 %.not, label %._crit_edge.loopexit, label %.lr.ph, !llvm.loop !18

._crit_edge.loopexit:                             ; preds = %.lr.ph
  %.pre = load i64, ptr %0, align 8, !tbaa !11
  br label %._crit_edge

._crit_edge:                                      ; preds = %._crit_edge.loopexit, %4
  %11 = phi i64 [ %.pre, %._crit_edge.loopexit ], [ %5, %4 ]
  %12 = add nuw i64 %.013, 1
  %13 = icmp ult i64 %12, %11
  br i1 %13, label %4, label %._crit_edge16, !llvm.loop !20

._crit_edge16:                                    ; preds = %._crit_edge, %1
  %14 = getelementptr inbounds nuw i8, ptr %0, i64 8
  %15 = load ptr, ptr %14, align 8, !tbaa !3
  tail call void @free(ptr noundef %15) #19
  tail call void @free(ptr noundef nonnull %0) #19
  ret void
}